; Function Attrs: nounwind uwtable
define void @Gia_ManSimInfoInit(ptr noundef readonly captures(none) %0) local_unnamed_addr #1 {
  %2 = getelementptr inbounds nuw i8, ptr %0, i64 24
  %3 = load ptr, ptr %2, align 8, !tbaa !63
  %4 = getelementptr i8, ptr %3, i64 4
  %.val1522 = load i32, ptr %4, align 4, !tbaa !34
  %5 = icmp sgt i32 %.val1522, 0
  br i1 %5, label %.lr.ph, label %.critedge

.lr.ph:                                           ; preds = %1
  %6 = getelementptr i8, ptr %0, i64 16
  %7 = getelementptr i8, ptr %0, i64 48
  br label %8

8:                                                ; preds = %.lr.ph, %Gia_ManSimInfoRandom.exit
  %9 = phi ptr [ %3, %.lr.ph ], [ %35, %Gia_ManSimInfoRandom.exit ]
  %indvars.iv = phi i64 [ 0, %.lr.ph ], [ %indvars.iv.next, %Gia_ManSimInfoRandom.exit ]
  %10 = getelementptr i8, ptr %9, i64 8
  %.val16 = load ptr, ptr %10, align 8, !tbaa !36
  %11 = getelementptr inbounds nuw i32, ptr %.val16, i64 %indvars.iv
  %12 = load i32, ptr %11, align 4, !tbaa !37
  %13 = load ptr, ptr %0, align 8, !tbaa !60
  %14 = getelementptr i8, ptr %13, i64 16
  %.val17 = load i32, ptr %14, align 8, !tbaa !44
  %15 = getelementptr i8, ptr %13, i64 64
  %.val18 = load ptr, ptr %15, align 8, !tbaa !48
  %16 = getelementptr i8, ptr %.val18, i64 4
  %.val18.val = load i32, ptr %16, align 4, !tbaa !34
  %17 = sub nsw i32 %.val18.val, %.val17
  %18 = icmp slt i32 %12, %17
  %.val13 = load i32, ptr %6, align 8, !tbaa !3
  br i1 %18, label %19, label %29

19:                                               ; preds = %8
  %.val14 = load ptr, ptr %7, align 8, !tbaa !14
  %20 = trunc nuw nsw i64 %indvars.iv to i32
  %21 = mul nsw i32 %.val13, %20
  %22 = sext i32 %21 to i64
  %23 = getelementptr inbounds i32, ptr %.val14, i64 %22
  %24 = icmp sgt i32 %.val13, 0
  br i1 %24, label %.lr.ph.preheader.i, label %Gia_ManSimInfoRandom.exit

.lr.ph.preheader.i:                               ; preds = %19
  %25 = zext nneg i32 %.val13 to i64
  br label %.lr.ph.i

.lr.ph.i:                                         ; preds = %.lr.ph.i, %.lr.ph.preheader.i
  %indvars.iv.i = phi i64 [ %25, %.lr.ph.preheader.i ], [ %indvars.iv.next.i, %.lr.ph.i ]
  %indvars.iv.next.i = add nsw i64 %indvars.iv.i, -1
  %26 = tail call i32 @Gia_ManRandom(i32 noundef 0) #26
  %27 = getelementptr inbounds nuw i32, ptr %23, i64 %indvars.iv.next.i
  store i32 %26, ptr %27, align 4, !tbaa !37
  %28 = icmp samesign ugt i64 %indvars.iv.i, 1
  br i1 %28, label %.lr.ph.i, label %Gia_ManSimInfoRandom.exit.loopexit, !llvm.loop !70

29:                                               ; preds = %8
  %30 = icmp sgt i32 %.val13, 0
  br i1 %30, label %.lr.ph.preheader.i21, label %Gia_ManSimInfoRandom.exit

.lr.ph.preheader.i21:                             ; preds = %29
  %.val12 = load ptr, ptr %7, align 8, !tbaa !14
  %31 = zext nneg i32 %.val13 to i64
  %32 = mul nuw nsw i64 %indvars.iv, %31
  %33 = getelementptr inbounds nuw i32, ptr %.val12, i64 %32
  %34 = shl nuw nsw i64 %31, 2
  tail call void @llvm.memset.p0.i64(ptr align 4 %33, i8 0, i64 %34, i1 false), !tbaa !37
  br label %Gia_ManSimInfoRandom.exit

Gia_ManSimInfoRandom.exit.loopexit:               ; preds = %.lr.ph.i
  %.pre = load ptr, ptr %2, align 8, !tbaa !63
  br label %Gia_ManSimInfoRandom.exit

Gia_ManSimInfoRandom.exit:                        ; preds = %Gia_ManSimInfoRandom.exit.loopexit, %.lr.ph.preheader.i21, %29, %19
  %35 = phi ptr [ %.pre, %Gia_ManSimInfoRandom.exit.loopexit ], [ %9, %.lr.ph.preheader.i21 ], [ %9, %29 ], [ %9, %19 ]
  %indvars.iv.next = add nuw nsw i64 %indvars.iv, 1
  %36 = getelementptr i8, ptr %35, i64 4
  %.val15 = load i32, ptr %36, align 4, !tbaa !34
  %37 = sext i32 %.val15 to i64
  %38 = icmp slt i64 %indvars.iv.next, %37
  br i1 %38, label %8, label %.critedge, !llvm.loop !71

.critedge:                                        ; preds = %Gia_ManSimInfoRandom.exit, %1
  ret void
}